target datalayout = "e-m:e-p270:32:32-p271:32:32-p272:64:64-i64:64-i128:128-f80:128-n8:16:32:64-S128"
target triple = "x86_64-pc-linux-gnu"

%struct._zend_phpdbg_globals = type { [11 x %struct._zend_array], %struct._zend_array, %struct._zend_array, ptr, ptr, %struct.phpdbg_frame_t, i32, ptr, %struct.phpdbg_lexer_data, ptr, %struct.sigaction, i32, i64, %struct.phpdbg_btree, %struct.phpdbg_btree, %struct._zend_array, %struct._zend_array, %struct._zend_array, %struct._zend_array, ptr, ptr, i8, ptr, ptr, ptr, i64, ptr, %struct._zval_struct, i32, i32, i8, i8, ptr, ptr, ptr, %struct._zend_array, ptr, ptr, ptr, [3 x %struct.anon.8], ptr, %struct.anon.9, i64, [2 x ptr], [3 x ptr], ptr, i8, ptr, ptr, [500 x i8], i32, %struct.phpdbg_signal_safe_mem, ptr, i64, ptr, i64 }
%struct.phpdbg_frame_t = type { i32, ptr, ptr }
%struct.phpdbg_lexer_data = type { i32, ptr, ptr, ptr, ptr, i32 }
%struct.sigaction = type { %union.anon.7, %struct.__sigset_t, i32, ptr }
%union.anon.7 = type { ptr }
%struct.__sigset_t = type { [16 x i64] }
%struct.phpdbg_btree = type { i64, i64, i8, ptr }
%struct._zval_struct = type { %union._zend_value, %union.anon, %union.anon.2 }
%union._zend_value = type { i64 }
%union.anon = type { i32 }
%union.anon.2 = type { i32 }
%struct._zend_array = type { %struct._zend_refcounted_h, %union.anon.4, i32, %union.anon.6, i32, i32, i32, i32, i64, ptr }
%struct._zend_refcounted_h = type { i32, %union.anon.3 }
%union.anon.3 = type { i32 }
%union.anon.4 = type { i32 }
%union.anon.6 = type { ptr }
%struct.anon.8 = type { i32 }
%struct.anon.9 = type { i8, i32, i32, ptr, i32 }
%struct.phpdbg_signal_safe_mem = type { ptr, i8, ptr, ptr }
%struct._phpdbg_watch_element = type { i32, ptr, i8, ptr, ptr, %struct._zend_array, ptr, ptr, ptr, %union.anon.29 }
%union.anon.29 = type { %struct._zend_array }

@phpdbg_globals = external global %struct._zend_phpdbg_globals, align 8

; Function Attrs: nounwind uwtable
define hidden void @phpdbg_queue_element_for_recreation(ptr noundef %0) #0 {
  %2 = alloca ptr, align 8
  %3 = alloca ptr, align 8
  %4 = alloca ptr, align 8
  %5 = alloca %struct._zval_struct, align 8
  %6 = alloca ptr, align 8
  %7 = alloca ptr, align 8
  %8 = alloca ptr, align 8
  %9 = alloca ptr, align 8
  %10 = alloca ptr, align 8
  %11 = alloca ptr, align 8
  %12 = alloca ptr, align 8
  %13 = alloca ptr, align 8
  store ptr %0, ptr %11, align 8
  %14 = load ptr, ptr %11, align 8
  %15 = getelementptr inbounds %struct._phpdbg_watch_element, ptr %14, i32 0, i32 8
  %16 = load ptr, ptr %15, align 8
  store ptr getelementptr inbounds (%struct._zend_phpdbg_globals, ptr @phpdbg_globals, i32 0, i32 17), ptr %8, align 8
  store ptr %16, ptr %9, align 8
  %17 = load ptr, ptr %8, align 8
  %18 = load ptr, ptr %9, align 8
  %19 = call ptr @zend_hash_find(ptr noundef %17, ptr noundef %18) #11
  store ptr %19, ptr %10, align 8
  %20 = load ptr, ptr %10, align 8
  %21 = icmp ne ptr %20, null
  br i1 %21, label %22, label %28

22:                                               ; preds = %1
  %23 = load ptr, ptr %10, align 8
  %24 = load ptr, ptr %23, align 8
  %25 = icmp ne ptr %24, null
  call void @llvm.assume(i1 %25)
  %26 = load ptr, ptr %10, align 8
  %27 = load ptr, ptr %26, align 8
  store ptr %27, ptr %7, align 8
  br label %29

28:                                               ; preds = %1
  store ptr null, ptr %7, align 8
  br label %29

29:                                               ; preds = %28, %22
  %30 = load ptr, ptr %7, align 8
  store ptr %30, ptr %12, align 8
  %31 = icmp ne ptr %30, null
  br i1 %31, label %32, label %47

32:                                               ; preds = %29
  %33 = load ptr, ptr %12, align 8
  store ptr %33, ptr %13, align 8
  br label %34

34:                                               ; preds = %43, %32
  %35 = load ptr, ptr %13, align 8
  %36 = load ptr, ptr %11, align 8
  %37 = icmp eq ptr %35, %36
  br i1 %37, label %38, label %39

38:                                               ; preds = %34
  br label %72

39:                                               ; preds = %34
  %40 = load ptr, ptr %13, align 8
  %41 = getelementptr inbounds %struct._phpdbg_watch_element, ptr %40, i32 0, i32 3
  %42 = load ptr, ptr %41, align 8
  store ptr %42, ptr %13, align 8
  br label %43

43:                                               ; preds = %39
  %44 = load ptr, ptr %13, align 8
  %45 = icmp ne ptr %44, null
  br i1 %45, label %34, label %46

46:                                               ; preds = %43
  br label %47

47:                                               ; preds = %46, %29
  %48 = load ptr, ptr %11, align 8
  %49 = getelementptr inbounds %struct._phpdbg_watch_element, ptr %48, i32 0, i32 8
  %50 = load ptr, ptr %49, align 8
  %51 = load ptr, ptr %11, align 8
  store ptr getelementptr inbounds (%struct._zend_phpdbg_globals, ptr @phpdbg_globals, i32 0, i32 17), ptr %2, align 8
  store ptr %50, ptr %3, align 8
  store ptr %51, ptr %4, align 8
  %52 = load ptr, ptr %4, align 8
  store ptr %52, ptr %5, align 8
  %53 = getelementptr inbounds %struct._zval_struct, ptr %5, i32 0, i32 1
  store i32 13, ptr %53, align 8
  %54 = load ptr, ptr %2, align 8
  %55 = load ptr, ptr %3, align 8
  %56 = call ptr @zend_hash_update(ptr noundef %54, ptr noundef %55, ptr noundef %5) #11
  store ptr %56, ptr %6, align 8
  %57 = load ptr, ptr %6, align 8
  %58 = load ptr, ptr %57, align 8
  %59 = icmp ne ptr %58, null
  call void @llvm.assume(i1 %59)
  %60 = load ptr, ptr %11, align 8
  %61 = load ptr, ptr %12, align 8
  call void @phpdbg_dissociate_watch_element(ptr noundef %60, ptr noundef %61)
  %62 = load ptr, ptr %11, align 8
  %63 = getelementptr inbounds %struct._phpdbg_watch_element, ptr %62, i32 0, i32 4
  %64 = load ptr, ptr %63, align 8
  %65 = icmp ne ptr %64, null
  br i1 %65, label %72, label %66

66:                                               ; preds = %47
  %67 = load ptr, ptr %11, align 8
  %68 = getelementptr inbounds %struct._phpdbg_watch_element, ptr %67, i32 0, i32 6
  %69 = load ptr, ptr %68, align 8
  %70 = ptrtoint ptr %69 to i64
  %71 = call ptr @zend_hash_index_add_empty_element(ptr noundef getelementptr inbounds (%struct._zend_phpdbg_globals, ptr @phpdbg_globals, i32 0, i32 18), i64 noundef %70)
  br label %72

72:                                               ; preds = %66, %47, %38
  ret void
}