; Function Attrs: nounwind uwtable
define hidden void @phpdbg_queue_element_for_recreation(ptr noundef %0) local_unnamed_addr #0 {
  %2 = alloca %struct._zval_struct, align 8
  %3 = getelementptr inbounds i8, ptr %0, i64 112
  %4 = load ptr, ptr %3, align 8
  %5 = tail call ptr @zend_hash_find(ptr noundef nonnull getelementptr inbounds (%struct._zend_phpdbg_globals, ptr @phpdbg_globals, i64 0, i32 17), ptr noundef %4) #17
  %.not = icmp eq ptr %5, null
  br i1 %.not, label %.thread, label %6

6:                                                ; preds = %1
  %7 = load ptr, ptr %5, align 8, !nonnull !4, !noundef !4
  br label %8

8:                                                ; preds = %6, %10
  %.0 = phi ptr [ %12, %10 ], [ %7, %6 ]
  %9 = icmp eq ptr %.0, %0
  br i1 %9, label %.loopexit, label %10

10:                                               ; preds = %8
  %11 = getelementptr inbounds i8, ptr %.0, i64 24
  %12 = load ptr, ptr %11, align 8
  %.not26 = icmp eq ptr %12, null
  br i1 %.not26, label %.thread, label %8

.thread:                                          ; preds = %10, %1
  %.02230 = phi ptr [ null, %1 ], [ %7, %10 ]
  %13 = load ptr, ptr %3, align 8
  store ptr %0, ptr %2, align 8
  %14 = getelementptr inbounds i8, ptr %2, i64 8
  store i32 13, ptr %14, align 8
  %15 = call ptr @zend_hash_update(ptr noundef nonnull getelementptr inbounds (%struct._zend_phpdbg_globals, ptr @phpdbg_globals, i64 0, i32 17), ptr noundef %13, ptr noundef nonnull %2) #17
  %16 = load ptr, ptr %15, align 8
  %17 = icmp ne ptr %16, null
  call void @llvm.assume(i1 %17)
  call void @phpdbg_dissociate_watch_element(ptr noundef %0, ptr noundef %.02230)
  %18 = getelementptr inbounds i8, ptr %0, i64 32
  %19 = load ptr, ptr %18, align 8
  %.not27 = icmp eq ptr %19, null
  br i1 %.not27, label %20, label %.loopexit

20:                                               ; preds = %.thread
  %21 = getelementptr inbounds i8, ptr %0, i64 96
  %22 = load ptr, ptr %21, align 8
  %23 = ptrtoint ptr %22 to i64
  %24 = call ptr @zend_hash_index_add_empty_element(ptr noundef nonnull getelementptr inbounds (%struct._zend_phpdbg_globals, ptr @phpdbg_globals, i64 0, i32 18), i64 noundef %23) #17
  br label %.loopexit

.loopexit:                                        ; preds = %8, %20, %.thread
  ret void
}